target datalayout = "e-m:e-p270:32:32-p271:32:32-p272:64:64-i64:64-i128:128-f80:128-n8:16:32:64-S128"
target triple = "x86_64-pc-linux-gnu"

%"class.std::shared_ptr" = type { %"class.std::__shared_ptr" }
%"class.std::__shared_ptr" = type { ptr, %"class.std::__shared_count" }
%"class.std::__shared_count" = type { ptr }
%"class.std::vector.9" = type { %"struct.std::_Vector_base.10" }
%"struct.std::_Vector_base.10" = type { %"struct.std::_Vector_base<open_spiel::breakthrough::CellState, std::allocator<open_spiel::breakthrough::CellState>>::_Vector_impl" }
%"struct.std::_Vector_base<open_spiel::breakthrough::CellState, std::allocator<open_spiel::breakthrough::CellState>>::_Vector_impl" = type { %"struct.std::_Vector_base<open_spiel::breakthrough::CellState, std::allocator<open_spiel::breakthrough::CellState>>::_Vector_impl_data" }
%"struct.std::_Vector_base<open_spiel::breakthrough::CellState, std::allocator<open_spiel::breakthrough::CellState>>::_Vector_impl_data" = type { ptr, ptr, ptr }
%"class.open_spiel::breakthrough::BreakthroughState" = type { %"class.open_spiel::State.base", i32, i32, i32, %"struct.std::array", i32, i32, %"class.std::vector.9" }
%"class.open_spiel::State.base" = type <{ ptr, %"class.std::shared_ptr", i32, i32, %"class.std::vector", i32 }>
%"class.std::vector" = type { %"struct.std::_Vector_base" }
%"struct.std::_Vector_base" = type { %"struct.std::_Vector_base<open_spiel::State::PlayerAction, std::allocator<open_spiel::State::PlayerAction>>::_Vector_impl" }
%"struct.std::_Vector_base<open_spiel::State::PlayerAction, std::allocator<open_spiel::State::PlayerAction>>::_Vector_impl" = type { %"struct.std::_Vector_base<open_spiel::State::PlayerAction, std::allocator<open_spiel::State::PlayerAction>>::_Vector_impl_data" }
%"struct.std::_Vector_base<open_spiel::State::PlayerAction, std::allocator<open_spiel::State::PlayerAction>>::_Vector_impl_data" = type { ptr, ptr, ptr }
%"struct.std::array" = type { [2 x i32] }

; Function Attrs: mustprogress nounwind uwtable
define linkonce_odr noundef nonnull align 4 dereferenceable(4) ptr @_ZNSt14__array_traitsIiLm2EE6_S_refERA2_Kim(ptr noundef nonnull align 4 dereferenceable(8) %0, i64 noundef %1) #5 comdat align 2 {
  %3 = alloca ptr, align 8
  %4 = alloca i64, align 8
  store ptr %0, ptr %3, align 8
  store i64 %1, ptr %4, align 8
  %5 = load ptr, ptr %3, align 8
  %6 = load i64, ptr %4, align 8
  %7 = getelementptr inbounds [2 x i32], ptr %5, i64 0, i64 %6
  ret ptr %7
}

; Function Attrs: mustprogress nounwind uwtable
define linkonce_odr noundef nonnull align 4 dereferenceable(4) ptr @_ZNKSt5arrayIiLm2EEixEm(ptr noundef nonnull align 4 dereferenceable(8) %0, i64 noundef %1) #5 comdat align 2 {
  %3 = alloca ptr, align 8
  %4 = alloca i64, align 8
  store ptr %0, ptr %3, align 8
  store i64 %1, ptr %4, align 8
  %5 = load ptr, ptr %3, align 8
  %6 = getelementptr inbounds nuw %"struct.std::array", ptr %5, i32 0, i32 0
  %7 = load i64, ptr %4, align 8
  %8 = call noundef nonnull align 4 dereferenceable(4) ptr @_ZNSt14__array_traitsIiLm2EE6_S_refERA2_Kim(ptr noundef nonnull align 4 dereferenceable(8) %6, i64 noundef %7) #3
  ret ptr %8
}

; Function Attrs: mustprogress nounwind uwtable
define noundef zeroext i1 @_ZNK10open_spiel12breakthrough17BreakthroughState10IsTerminalEv(ptr noundef nonnull align 8 dereferenceable(112) %0) unnamed_addr #5 align 2 {
  %2 = alloca ptr, align 8
  store ptr %0, ptr %2, align 8
  %3 = load ptr, ptr %2, align 8
  %4 = getelementptr inbounds nuw %"class.open_spiel::breakthrough::BreakthroughState", ptr %3, i32 0, i32 2
  %5 = load i32, ptr %4, align 8
  %6 = icmp sge i32 %5, 0
  br i1 %6, label %19, label %7

7:                                                ; preds = %1
  %8 = getelementptr inbounds nuw %"class.open_spiel::breakthrough::BreakthroughState", ptr %3, i32 0, i32 4
  %9 = call noundef nonnull align 4 dereferenceable(4) ptr @_ZNKSt5arrayIiLm2EEixEm(ptr noundef nonnull align 4 dereferenceable(8) %8, i64 noundef 0) #3
  %10 = load i32, ptr %9, align 4
  %11 = icmp eq i32 %10, 0
  br i1 %11, label %17, label %12

12:                                               ; preds = %7
  %13 = getelementptr inbounds nuw %"class.open_spiel::breakthrough::BreakthroughState", ptr %3, i32 0, i32 4
  %14 = call noundef nonnull align 4 dereferenceable(4) ptr @_ZNKSt5arrayIiLm2EEixEm(ptr noundef nonnull align 4 dereferenceable(8) %13, i64 noundef 1) #3
  %15 = load i32, ptr %14, align 4
  %16 = icmp eq i32 %15, 0
  br label %17

17:                                               ; preds = %12, %7
  %18 = phi i1 [ true, %7 ], [ %16, %12 ]
  br label %19

19:                                               ; preds = %17, %1
  %20 = phi i1 [ true, %1 ], [ %18, %17 ]
  ret i1 %20
}